; Function Attrs: mustprogress uwtable
define dso_local void @_ZN10VIdProtect12writeMapFileERKNSt7__cxx1112basic_stringIcSt11char_traitsIcESaIcEEE(ptr noundef nonnull align 8 dereferenceable(32) %0) local_unnamed_addr #4 align 2 personality ptr @__gxx_personality_v0 {
  %2 = load atomic i8, ptr @_ZGVZN13VIdProtectImp9singletonEvE1s acquire, align 8
  %3 = icmp eq i8 %2, 0
  br i1 %3, label %4, label %_ZN13VIdProtectImp9singletonEv.exit, !prof !241

4:                                                ; preds = %1
  %5 = tail call i32 @__cxa_guard_acquire(ptr nonnull @_ZGVZN13VIdProtectImp9singletonEvE1s) #34
  %.not.i = icmp eq i32 %5, 0
  br i1 %.not.i, label %_ZN13VIdProtectImp9singletonEv.exit, label %6

6:                                                ; preds = %4
  invoke void @_ZN13VIdProtectImpC2Ev(ptr noundef nonnull align 8 dereferenceable(144) @_ZZN13VIdProtectImp9singletonEvE1s)
          to label %7 unwind label %9

7:                                                ; preds = %6
  %8 = tail call i32 @__cxa_atexit(ptr nonnull @_ZN13VIdProtectImpD2Ev, ptr nonnull @_ZZN13VIdProtectImp9singletonEvE1s, ptr nonnull @__dso_handle) #34
  tail call void @__cxa_guard_release(ptr nonnull @_ZGVZN13VIdProtectImp9singletonEvE1s) #34
  br label %_ZN13VIdProtectImp9singletonEv.exit

9:                                                ; preds = %6
  %10 = landingpad { ptr, i32 }
          cleanup
  tail call void @__cxa_guard_abort(ptr nonnull @_ZGVZN13VIdProtectImp9singletonEvE1s) #34
  resume { ptr, i32 } %10

_ZN13VIdProtectImp9singletonEv.exit:              ; preds = %1, %4, %7
  tail call void @_ZNK13VIdProtectImp12writeMapFileERKNSt7__cxx1112basic_stringIcSt11char_traitsIcESaIcEEE(ptr noundef nonnull align 8 dereferenceable(144) @_ZZN13VIdProtectImp9singletonEvE1s, ptr noundef nonnull align 8 dereferenceable(32) %0)
  ret void
}